; ModuleID = '19/2575.c'
source_filename = "19/2575.c"
target datalayout = "e-m:e-p270:32:32-p271:32:32-p272:64:64-i64:64-f80:128-n8:16:32:64-S128"
target triple = "x86_64-pc-linux-gnu"

@.str = private unnamed_addr constant [2 x i8] c" \00", align 1
@.str.1 = private unnamed_addr constant [3 x i8] c"%c\00", align 1

; Function Attrs: noinline nounwind uwtable
define dso_local i32 @main() #0 {
  %1 = alloca i32, align 4
  %2 = alloca [100 x i8], align 16
  %3 = alloca [100 x i8], align 16
  %4 = alloca [100 x i8], align 16
  %5 = alloca i32, align 4
  %6 = alloca i32, align 4
  %7 = alloca i32, align 4
  %8 = alloca i32, align 4
  %9 = alloca i32, align 4
  %10 = alloca i32, align 4
  store i32 0, i32* %1, align 4
  %11 = getelementptr inbounds [100 x i8], [100 x i8]* %2, i64 0, i64 0
  %12 = call i32 (i8*, ...) bitcast (i32 (...)* @gets to i32 (i8*, ...)*)(i8* %11)
  %13 = getelementptr inbounds [100 x i8], [100 x i8]* %3, i64 0, i64 0
  %14 = call i32 (i8*, ...) bitcast (i32 (...)* @gets to i32 (i8*, ...)*)(i8* %13)
  %15 = getelementptr inbounds [100 x i8], [100 x i8]* %4, i64 0, i64 0
  %16 = call i32 (i8*, ...) bitcast (i32 (...)* @gets to i32 (i8*, ...)*)(i8* %15)
  %17 = getelementptr inbounds [100 x i8], [100 x i8]* %2, i64 0, i64 0
  %18 = call i64 @strlen(i8* %17) #3
  %19 = trunc i64 %18 to i32
  store i32 %19, i32* %5, align 4
  %20 = getelementptr inbounds [100 x i8], [100 x i8]* %3, i64 0, i64 0
  %21 = call i64 @strlen(i8* %20) #3
  %22 = trunc i64 %21 to i32
  store i32 %22, i32* %6, align 4
  %23 = getelementptr inbounds [100 x i8], [100 x i8]* %4, i64 0, i64 0
  %24 = call i64 @strlen(i8* %23) #3
  %25 = trunc i64 %24 to i32
  store i32 %25, i32* %7, align 4
  store i32 0, i32* %8, align 4
  br label %26

26:                                               ; preds = %157, %0
  %27 = load i32, i32* %8, align 4
  %28 = load i32, i32* %5, align 4
  %29 = icmp slt i32 %27, %28
  br i1 %29, label %30, label %160

30:                                               ; preds = %26
  store i32 1, i32* %10, align 4
  %31 = load i32, i32* %8, align 4
  %32 = icmp ne i32 %31, 0
  br i1 %32, label %33, label %100

33:                                               ; preds = %30
  %34 = load i32, i32* %8, align 4
  %35 = sext i32 %34 to i64
  %36 = getelementptr inbounds [100 x i8], [100 x i8]* %2, i64 0, i64 %35
  %37 = load i8, i8* %36, align 1
  %38 = sext i8 %37 to i32
  %39 = icmp eq i32 %38, 32
  br i1 %39, label %40, label %66

40:                                               ; preds = %33
  store i32 0, i32* %10, align 4
  store i32 0, i32* %9, align 4
  br label %41

41:                                               ; preds = %62, %40
  %42 = load i32, i32* %9, align 4
  %43 = load i32, i32* %6, align 4
  %44 = icmp slt i32 %42, %43
  br i1 %44, label %45, label %65

45:                                               ; preds = %41
  %46 = load i32, i32* %8, align 4
  %47 = load i32, i32* %9, align 4
  %48 = add nsw i32 %46, %47
  %49 = add nsw i32 %48, 1
  %50 = sext i32 %49 to i64
  %51 = getelementptr inbounds [100 x i8], [100 x i8]* %2, i64 0, i64 %50
  %52 = load i8, i8* %51, align 1
  %53 = sext i8 %52 to i32
  %54 = load i32, i32* %9, align 4
  %55 = sext i32 %54 to i64
  %56 = getelementptr inbounds [100 x i8], [100 x i8]* %3, i64 0, i64 %55
  %57 = load i8, i8* %56, align 1
  %58 = sext i8 %57 to i32
  %59 = icmp ne i32 %53, %58
  br i1 %59, label %60, label %61

60:                                               ; preds = %45
  store i32 1, i32* %10, align 4
  br label %61

61:                                               ; preds = %60, %45
  br label %62

62:                                               ; preds = %61
  %63 = load i32, i32* %9, align 4
  %64 = add nsw i32 %63, 1
  store i32 %64, i32* %9, align 4
  br label %41

65:                                               ; preds = %41
  br label %66

66:                                               ; preds = %65, %33
  %67 = load i32, i32* %10, align 4
  %68 = icmp eq i32 %67, 0
  br i1 %68, label %69, label %89

69:                                               ; preds = %66
  %70 = call i32 (i8*, ...) @printf(i8* getelementptr inbounds ([2 x i8], [2 x i8]* @.str, i64 0, i64 0))
  store i32 0, i32* %9, align 4
  br label %71

71:                                               ; preds = %82, %69
  %72 = load i32, i32* %9, align 4
  %73 = load i32, i32* %7, align 4
  %74 = icmp slt i32 %72, %73
  br i1 %74, label %75, label %85

75:                                               ; preds = %71
  %76 = load i32, i32* %9, align 4
  %77 = sext i32 %76 to i64
  %78 = getelementptr inbounds [100 x i8], [100 x i8]* %4, i64 0, i64 %77
  %79 = load i8, i8* %78, align 1
  %80 = sext i8 %79 to i32
  %81 = call i32 (i8*, ...) @printf(i8* getelementptr inbounds ([3 x i8], [3 x i8]* @.str.1, i64 0, i64 0), i32 %80)
  br label %82

82:                                               ; preds = %75
  %83 = load i32, i32* %9, align 4
  %84 = add nsw i32 %83, 1
  store i32 %84, i32* %9, align 4
  br label %71

85:                                               ; preds = %71
  %86 = load i32, i32* %8, align 4
  %87 = load i32, i32* %6, align 4
  %88 = add nsw i32 %86, %87
  store i32 %88, i32* %8, align 4
  br label %89

89:                                               ; preds = %85, %66
  %90 = load i32, i32* %10, align 4
  %91 = icmp eq i32 %90, 1
  br i1 %91, label %92, label %99

92:                                               ; preds = %89
  %93 = load i32, i32* %8, align 4
  %94 = sext i32 %93 to i64
  %95 = getelementptr inbounds [100 x i8], [100 x i8]* %2, i64 0, i64 %94
  %96 = load i8, i8* %95, align 1
  %97 = sext i8 %96 to i32
  %98 = call i32 (i8*, ...) @printf(i8* getelementptr inbounds ([3 x i8], [3 x i8]* @.str.1, i64 0, i64 0), i32 %97)
  br label %99

99:                                               ; preds = %92, %89
  br label %156

100:                                              ; preds = %30
  %101 = load i32, i32* %8, align 4
  %102 = icmp eq i32 %101, 0
  br i1 %102, label %103, label %155

103:                                              ; preds = %100
  store i32 0, i32* %10, align 4
  store i32 0, i32* %9, align 4
  br label %104

104:                                              ; preds = %122, %103
  %105 = load i32, i32* %9, align 4
  %106 = load i32, i32* %6, align 4
  %107 = icmp slt i32 %105, %106
  br i1 %107, label %108, label %125

108:                                              ; preds = %104
  %109 = load i32, i32* %9, align 4
  %110 = sext i32 %109 to i64
  %111 = getelementptr inbounds [100 x i8], [100 x i8]* %2, i64 0, i64 %110
  %112 = load i8, i8* %111, align 1
  %113 = sext i8 %112 to i32
  %114 = load i32, i32* %9, align 4
  %115 = sext i32 %114 to i64
  %116 = getelementptr inbounds [100 x i8], [100 x i8]* %3, i64 0, i64 %115
  %117 = load i8, i8* %116, align 1
  %118 = sext i8 %117 to i32
  %119 = icmp ne i32 %113, %118
  br i1 %119, label %120, label %121

120:                                              ; preds = %108
  store i32 1, i32* %10, align 4
  br label %121

121:                                              ; preds = %120, %108
  br label %122

122:                                              ; preds = %121
  %123 = load i32, i32* %9, align 4
  %124 = add nsw i32 %123, 1
  store i32 %124, i32* %9, align 4
  br label %104

125:                                              ; preds = %104
  %126 = load i32, i32* %10, align 4
  %127 = icmp eq i32 %126, 0
  br i1 %127, label %128, label %146

128:                                              ; preds = %125
  store i32 0, i32* %9, align 4
  br label %129

129:                                              ; preds = %140, %128
  %130 = load i32, i32* %9, align 4
  %131 = load i32, i32* %7, align 4
  %132 = icmp slt i32 %130, %131
  br i1 %132, label %133, label %143

133:                                              ; preds = %129
  %134 = load i32, i32* %9, align 4
  %135 = sext i32 %134 to i64
  %136 = getelementptr inbounds [100 x i8], [100 x i8]* %4, i64 0, i64 %135
  %137 = load i8, i8* %136, align 1
  %138 = sext i8 %137 to i32
  %139 = call i32 (i8*, ...) @printf(i8* getelementptr inbounds ([3 x i8], [3 x i8]* @.str.1, i64 0, i64 0), i32 %138)
  br label %140

140:                                              ; preds = %133
  %141 = load i32, i32* %9, align 4
  %142 = add nsw i32 %141, 1
  store i32 %142, i32* %9, align 4
  br label %129

143:                                              ; preds = %129
  %144 = load i32, i32* %6, align 4
  %145 = sub nsw i32 %144, 1
  store i32 %145, i32* %8, align 4
  br label %146

146:                                              ; preds = %143, %125
  %147 = load i32, i32* %10, align 4
  %148 = icmp eq i32 %147, 1
  br i1 %148, label %149, label %154

149:                                              ; preds = %146
  %150 = getelementptr inbounds [100 x i8], [100 x i8]* %2, i64 0, i64 0
  %151 = load i8, i8* %150, align 16
  %152 = sext i8 %151 to i32
  %153 = call i32 (i8*, ...) @printf(i8* getelementptr inbounds ([3 x i8], [3 x i8]* @.str.1, i64 0, i64 0), i32 %152)
  br label %154

154:                                              ; preds = %149, %146
  br label %155

155:                                              ; preds = %154, %100
  br label %156

156:                                              ; preds = %155, %99
  br label %157

157:                                              ; preds = %156
  %158 = load i32, i32* %8, align 4
  %159 = add nsw i32 %158, 1
  store i32 %159, i32* %8, align 4
  br label %26

160:                                              ; preds = %26
  ret i32 0
}

declare dso_local i32 @gets(...) #1

; Function Attrs: nounwind readonly
declare dso_local i64 @strlen(i8*) #2

declare dso_local i32 @printf(i8*, ...) #1


!llvm.module.flags = !{!0}
!llvm.ident = !{!1}

!0 = !{i32 1, !"wchar_size", i32 4}
!1 = !{!"clang version 10.0.0-4ubuntu1 "}
